target datalayout = "e-m:e-p270:32:32-p271:32:32-p272:64:64-i64:64-i128:128-f80:128-n8:16:32:64-S128"
target triple = "x86_64-pc-linux-gnu"

%class.nmethod = type <{ %class.CodeBlob.base, [2 x i8], i64, i64, ptr, %union.anon, ptr, ptr, ptr, ptr, ptr, ptr, ptr, i16, i16, i32, i32, i32, i32, i32, i32, i32, i16, i16, i16, i16, i16, i16, i32, i32, i32, i32, i32, i8, i8, i8, i8, i8, i8, [2 x i8] }>
%class.CodeBlob.base = type <{ ptr, ptr, ptr, i32, i32, i32, i32, i32, i32, i16, i16, i8, i8 }>
%union.anon = type { ptr }
%"struct.Atomic::StoreImpl.71" = type { i8 }
%"struct.Atomic::PlatformStore.72" = type { i8 }

@_ZN8Universe14_collectedHeapE = external global ptr, align 8
@_ZN9CodeCache16_unloading_cycleE = external global i8, align 1

; Function Attrs: mustprogress nounwind uwtable
define linkonce_odr hidden void @_ZNK6Atomic13PlatformStoreILm1EEclIhEEvPVT_S3_(ptr noundef nonnull align 1 dereferenceable(1) %0, ptr noundef %1, i8 noundef zeroext %2) #1 comdat align 2 {
  %4 = alloca ptr, align 8
  %5 = alloca ptr, align 8
  %6 = alloca i8, align 1
  store ptr %0, ptr %4, align 8
  store ptr %1, ptr %5, align 8
  store i8 %2, ptr %6, align 1
  %7 = load i8, ptr %6, align 1
  %8 = load ptr, ptr %5, align 8
  store volatile i8 %7, ptr %8, align 1
  ret void
}

; Function Attrs: mustprogress nounwind uwtable
define linkonce_odr hidden void @_ZNK6Atomic9StoreImplIhhNS_13PlatformStoreILm1EEEvEclEPVhh(ptr noundef nonnull align 1 dereferenceable(1) %0, ptr noundef %1, i8 noundef zeroext %2) #1 comdat align 2 {
  %4 = alloca ptr, align 8
  %5 = alloca ptr, align 8
  %6 = alloca i8, align 1
  %7 = alloca %"struct.Atomic::PlatformStore.72", align 1
  store ptr %0, ptr %4, align 8
  store ptr %1, ptr %5, align 8
  store i8 %2, ptr %6, align 1
  %8 = load ptr, ptr %5, align 8
  %9 = load i8, ptr %6, align 1
  call void @_ZNK6Atomic13PlatformStoreILm1EEclIhEEvPVT_S3_(ptr noundef nonnull align 1 dereferenceable(1) %7, ptr noundef %8, i8 noundef zeroext %9)
  ret void
}

; Function Attrs: mustprogress nounwind uwtable
define linkonce_odr hidden noundef zeroext i8 @_ZN16IsUnloadingState19set_unloading_cycleEhh(i8 noundef zeroext %0, i8 noundef zeroext %1) #1 comdat align 2 {
  %3 = alloca i8, align 1
  %4 = alloca i8, align 1
  store i8 %0, ptr %3, align 1
  store i8 %1, ptr %4, align 1
  %5 = load i8, ptr %3, align 1
  %6 = zext i8 %5 to i32
  %7 = and i32 %6, 249
  %8 = trunc i32 %7 to i8
  store i8 %8, ptr %3, align 1
  %9 = load i8, ptr %4, align 1
  %10 = zext i8 %9 to i32
  %11 = shl i32 %10, 1
  %12 = trunc i32 %11 to i8
  %13 = zext i8 %12 to i32
  %14 = load i8, ptr %3, align 1
  %15 = zext i8 %14 to i32
  %16 = or i32 %15, %13
  %17 = trunc i32 %16 to i8
  store i8 %17, ptr %3, align 1
  %18 = load i8, ptr %3, align 1
  ret i8 %18
}

; Function Attrs: mustprogress nounwind uwtable
define linkonce_odr hidden noundef zeroext i8 @_ZN16IsUnloadingState16set_is_unloadingEhb(i8 noundef zeroext %0, i1 noundef zeroext %1) #1 comdat align 2 {
  %3 = alloca i8, align 1
  %4 = alloca i8, align 1
  store i8 %0, ptr %3, align 1
  %5 = zext i1 %1 to i8
  store i8 %5, ptr %4, align 1
  %6 = load i8, ptr %3, align 1
  %7 = zext i8 %6 to i32
  %8 = and i32 %7, 254
  %9 = trunc i32 %8 to i8
  store i8 %9, ptr %3, align 1
  %10 = load i8, ptr %4, align 1
  %11 = trunc i8 %10 to i1
  br i1 %11, label %12, label %17

12:                                               ; preds = %2
  %13 = load i8, ptr %3, align 1
  %14 = zext i8 %13 to i32
  %15 = or i32 %14, 1
  %16 = trunc i32 %15 to i8
  store i8 %16, ptr %3, align 1
  br label %17

17:                                               ; preds = %12, %2
  %18 = load i8, ptr %3, align 1
  ret i8 %18
}

; Function Attrs: mustprogress nounwind uwtable
define linkonce_odr hidden void @_ZN6Atomic5storeIhhEEvPVT_T0_(ptr noundef %0, i8 noundef zeroext %1) #1 comdat align 2 {
  %3 = alloca ptr, align 8
  %4 = alloca i8, align 1
  %5 = alloca %"struct.Atomic::StoreImpl.71", align 1
  store ptr %0, ptr %3, align 8
  store i8 %1, ptr %4, align 1
  %6 = load ptr, ptr %3, align 8
  %7 = load i8, ptr %4, align 1
  call void @_ZNK6Atomic9StoreImplIhhNS_13PlatformStoreILm1EEEvEclEPVhh(ptr noundef nonnull align 1 dereferenceable(1) %5, ptr noundef %6, i8 noundef zeroext %7)
  ret void
}

; Function Attrs: mustprogress nounwind uwtable
define linkonce_odr hidden noundef zeroext i8 @_ZN16IsUnloadingState6createEbh(i1 noundef zeroext %0, i8 noundef zeroext %1) #1 comdat align 2 {
  %3 = alloca i8, align 1
  %4 = alloca i8, align 1
  %5 = alloca i8, align 1
  %6 = zext i1 %0 to i8
  store i8 %6, ptr %3, align 1
  store i8 %1, ptr %4, align 1
  store i8 0, ptr %5, align 1
  %7 = load i8, ptr %5, align 1
  %8 = load i8, ptr %3, align 1
  %9 = trunc i8 %8 to i1
  %10 = call noundef zeroext i8 @_ZN16IsUnloadingState16set_is_unloadingEhb(i8 noundef zeroext %7, i1 noundef zeroext %9)
  store i8 %10, ptr %5, align 1
  %11 = load i8, ptr %5, align 1
  %12 = load i8, ptr %4, align 1
  %13 = call noundef zeroext i8 @_ZN16IsUnloadingState19set_unloading_cycleEhh(i8 noundef zeroext %11, i8 noundef zeroext %12)
  store i8 %13, ptr %5, align 1
  %14 = load i8, ptr %5, align 1
  ret i8 %14
}

; Function Attrs: mustprogress nounwind uwtable
define linkonce_odr hidden noundef zeroext i8 @_ZN9CodeCache15unloading_cycleEv() #1 comdat align 2 {
  %1 = load i8, ptr @_ZN9CodeCache16_unloading_cycleE, align 1
  ret i8 %1
}

; Function Attrs: mustprogress nounwind uwtable
define linkonce_odr hidden noundef ptr @_ZN8Universe4heapEv() #1 comdat align 2 {
  %1 = load ptr, ptr @_ZN8Universe14_collectedHeapE, align 8
  ret ptr %1
}

; Function Attrs: mustprogress nounwind uwtable
define hidden void @_ZN7nmethod21clear_unloading_stateEv(ptr noundef nonnull align 8 dereferenceable(214) %0) #1 align 2 {
  %2 = alloca ptr, align 8
  %3 = alloca i8, align 1
  store ptr %0, ptr %2, align 8
  %4 = load ptr, ptr %2, align 8
  %5 = call noundef zeroext i8 @_ZN9CodeCache15unloading_cycleEv()
  %6 = call noundef zeroext i8 @_ZN16IsUnloadingState6createEbh(i1 noundef zeroext false, i8 noundef zeroext %5)
  store i8 %6, ptr %3, align 1
  %7 = getelementptr inbounds %class.nmethod, ptr %4, i32 0, i32 35
  %8 = load i8, ptr %3, align 1
  call void @_ZN6Atomic5storeIhhEEvPVT_T0_(ptr noundef %7, i8 noundef zeroext %8)
  ret void
}

; Function Attrs: mustprogress nounwind uwtable
define hidden void @_ZN7nmethod9post_initEv(ptr noundef nonnull align 8 dereferenceable(214) %0) #1 align 2 {
  %2 = alloca ptr, align 8
  store ptr %0, ptr %2, align 8
  %3 = load ptr, ptr %2, align 8
  call void @_ZN7nmethod21clear_unloading_stateEv(ptr noundef nonnull align 8 dereferenceable(214) %3)
  call void @_ZN7nmethod20finalize_relocationsEv(ptr noundef nonnull align 8 dereferenceable(214) %3)
  %4 = call noundef ptr @_ZN8Universe4heapEv()
  %5 = load ptr, ptr %4, align 8
  %6 = getelementptr inbounds ptr, ptr %5, i64 46
  %7 = load ptr, ptr %6, align 8
  call void %7(ptr noundef nonnull align 8 dereferenceable(104) %4, ptr noundef %3)
  call void @_ZN9CodeCache6commitEP8CodeBlob(ptr noundef %3)
  ret void
}