; Function Attrs: mustprogress nounwind uwtable
define hidden void @_ZN7nmethod9post_initEv(ptr noundef nonnull align 8 dereferenceable(214) %0) local_unnamed_addr #0 align 2 {
  %2 = load i8, ptr @_ZN9CodeCache16_unloading_cycleE, align 1
  %3 = shl i8 %2, 1
  %4 = getelementptr inbounds i8, ptr %0, i64 210
  store volatile i8 %3, ptr %4, align 2
  tail call void @_ZN7nmethod20finalize_relocationsEv(ptr noundef nonnull align 8 dereferenceable(214) %0)
  %5 = load ptr, ptr @_ZN8Universe14_collectedHeapE, align 8
  %6 = load ptr, ptr %5, align 8
  %7 = getelementptr inbounds i8, ptr %6, i64 368
  %8 = load ptr, ptr %7, align 8
  tail call void %8(ptr noundef nonnull align 8 dereferenceable(104) %5, ptr noundef nonnull %0) #23
  tail call void @_ZN9CodeCache6commitEP8CodeBlob(ptr noundef nonnull %0) #23
  ret void
}